; ModuleID = '25/815.c'
source_filename = "25/815.c"
target datalayout = "e-m:e-p270:32:32-p271:32:32-p272:64:64-i64:64-f80:128-n8:16:32:64-S128"
target triple = "x86_64-pc-linux-gnu"

@a = dso_local global [100 x i32] zeroinitializer, align 16
@.str = private unnamed_addr constant [3 x i8] c"%d\00", align 1

; Function Attrs: noinline nounwind uwtable
define dso_local i32 @main() #0 {
  %1 = alloca i32, align 4
  %2 = alloca i32, align 4
  %3 = alloca i32, align 4
  %4 = alloca i32, align 4
  %5 = alloca i32, align 4
  store i32 0, i32* %1, align 4
  store i32 1, i32* getelementptr inbounds ([100 x i32], [100 x i32]* @a, i64 0, i64 0), align 16
  %6 = call i32 (i8*, ...) @__isoc99_scanf(i8* getelementptr inbounds ([3 x i8], [3 x i8]* @.str, i64 0, i64 0), i32* %4)
  store i32 0, i32* %2, align 4
  br label %7

7:                                                ; preds = %62, %0
  %8 = load i32, i32* %2, align 4
  %9 = load i32, i32* %4, align 4
  %10 = icmp slt i32 %8, %9
  br i1 %10, label %11, label %65

11:                                               ; preds = %7
  store i32 0, i32* %3, align 4
  br label %12

12:                                               ; preds = %24, %11
  %13 = load i32, i32* %3, align 4
  %14 = icmp sle i32 %13, 100
  br i1 %14, label %15, label %27

15:                                               ; preds = %12
  %16 = load i32, i32* %3, align 4
  %17 = sext i32 %16 to i64
  %18 = getelementptr inbounds [100 x i32], [100 x i32]* @a, i64 0, i64 %17
  %19 = load i32, i32* %18, align 4
  %20 = mul nsw i32 2, %19
  %21 = load i32, i32* %3, align 4
  %22 = sext i32 %21 to i64
  %23 = getelementptr inbounds [100 x i32], [100 x i32]* @a, i64 0, i64 %22
  store i32 %20, i32* %23, align 4
  br label %24

24:                                               ; preds = %15
  %25 = load i32, i32* %3, align 4
  %26 = add nsw i32 %25, 1
  store i32 %26, i32* %3, align 4
  br label %12

27:                                               ; preds = %12
  store i32 0, i32* %3, align 4
  br label %28

28:                                               ; preds = %58, %27
  %29 = load i32, i32* %3, align 4
  %30 = icmp sle i32 %29, 100
  br i1 %30, label %31, label %61

31:                                               ; preds = %28
  %32 = load i32, i32* %3, align 4
  %33 = sext i32 %32 to i64
  %34 = getelementptr inbounds [100 x i32], [100 x i32]* @a, i64 0, i64 %33
  %35 = load i32, i32* %34, align 4
  %36 = icmp sge i32 %35, 10
  br i1 %36, label %37, label %57

37:                                               ; preds = %31
  %38 = load i32, i32* %3, align 4
  %39 = sext i32 %38 to i64
  %40 = getelementptr inbounds [100 x i32], [100 x i32]* @a, i64 0, i64 %39
  %41 = load i32, i32* %40, align 4
  %42 = sdiv i32 %41, 10
  %43 = load i32, i32* %3, align 4
  %44 = add nsw i32 %43, 1
  %45 = sext i32 %44 to i64
  %46 = getelementptr inbounds [100 x i32], [100 x i32]* @a, i64 0, i64 %45
  %47 = load i32, i32* %46, align 4
  %48 = add nsw i32 %47, %42
  store i32 %48, i32* %46, align 4
  %49 = load i32, i32* %3, align 4
  %50 = sext i32 %49 to i64
  %51 = getelementptr inbounds [100 x i32], [100 x i32]* @a, i64 0, i64 %50
  %52 = load i32, i32* %51, align 4
  %53 = srem i32 %52, 10
  %54 = load i32, i32* %3, align 4
  %55 = sext i32 %54 to i64
  %56 = getelementptr inbounds [100 x i32], [100 x i32]* @a, i64 0, i64 %55
  store i32 %53, i32* %56, align 4
  br label %57

57:                                               ; preds = %37, %31
  br label %58

58:                                               ; preds = %57
  %59 = load i32, i32* %3, align 4
  %60 = add nsw i32 %59, 1
  store i32 %60, i32* %3, align 4
  br label %28

61:                                               ; preds = %28
  br label %62

62:                                               ; preds = %61
  %63 = load i32, i32* %2, align 4
  %64 = add nsw i32 %63, 1
  store i32 %64, i32* %2, align 4
  br label %7

65:                                               ; preds = %7
  store i32 100, i32* %2, align 4
  br label %66

66:                                               ; preds = %78, %65
  %67 = load i32, i32* %2, align 4
  %68 = icmp sge i32 %67, 0
  br i1 %68, label %69, label %81

69:                                               ; preds = %66
  %70 = load i32, i32* %2, align 4
  %71 = sext i32 %70 to i64
  %72 = getelementptr inbounds [100 x i32], [100 x i32]* @a, i64 0, i64 %71
  %73 = load i32, i32* %72, align 4
  %74 = icmp ne i32 %73, 0
  br i1 %74, label %75, label %77

75:                                               ; preds = %69
  %76 = load i32, i32* %2, align 4
  store i32 %76, i32* %5, align 4
  br label %81

77:                                               ; preds = %69
  br label %78

78:                                               ; preds = %77
  %79 = load i32, i32* %2, align 4
  %80 = add nsw i32 %79, -1
  store i32 %80, i32* %2, align 4
  br label %66

81:                                               ; preds = %75, %66
  %82 = load i32, i32* %5, align 4
  store i32 %82, i32* %2, align 4
  br label %83

83:                                               ; preds = %92, %81
  %84 = load i32, i32* %2, align 4
  %85 = icmp sge i32 %84, 0
  br i1 %85, label %86, label %95

86:                                               ; preds = %83
  %87 = load i32, i32* %2, align 4
  %88 = sext i32 %87 to i64
  %89 = getelementptr inbounds [100 x i32], [100 x i32]* @a, i64 0, i64 %88
  %90 = load i32, i32* %89, align 4
  %91 = call i32 (i8*, ...) @printf(i8* getelementptr inbounds ([3 x i8], [3 x i8]* @.str, i64 0, i64 0), i32 %90)
  br label %92

92:                                               ; preds = %86
  %93 = load i32, i32* %2, align 4
  %94 = add nsw i32 %93, -1
  store i32 %94, i32* %2, align 4
  br label %83

95:                                               ; preds = %83
  %96 = load i32, i32* %1, align 4
  ret i32 %96
}

declare dso_local i32 @__isoc99_scanf(i8*, ...) #1

declare dso_local i32 @printf(i8*, ...) #1


!llvm.module.flags = !{!0}
!llvm.ident = !{!1}

!0 = !{i32 1, !"wchar_size", i32 4}
!1 = !{!"clang version 10.0.0-4ubuntu1 "}
